; Function Attrs: nofree norecurse nosync nounwind memory(argmem: readwrite) uwtable
define internal void @blend_softdifference_12bit(ptr noundef readonly captures(none) %0, i64 noundef %1, ptr noundef readonly captures(none) %2, i64 noundef %3, ptr noundef writeonly captures(none) %4, i64 noundef %5, i64 noundef %6, i64 noundef %7, ptr noundef readonly captures(none) %8, ptr readnone captures(none) %9) #6 {
  %11 = getelementptr inbounds nuw i8, ptr %8, i64 8
  %12 = load double, ptr %11, align 8, !tbaa !70
  %13 = fptrunc nsz double %12 to float
  %14 = lshr i64 %5, 1
  %15 = lshr i64 %1, 1
  %16 = lshr i64 %3, 1
  %17 = icmp sgt i64 %7, 0
  %18 = icmp sgt i64 %6, 0
  %or.cond = and i1 %17, %18
  br i1 %or.cond, label %.preheader.us, label %._crit_edge66

.preheader.us:                                    ; preds = %10, %._crit_edge.us
  %indvars.iv70 = phi i64 [ %indvars.iv.next71, %._crit_edge.us ], [ 0, %10 ]
  %.04664.us = phi ptr [ %51, %._crit_edge.us ], [ %4, %10 ]
  %.04763.us = phi ptr [ %53, %._crit_edge.us ], [ %2, %10 ]
  %.04862.us = phi ptr [ %52, %._crit_edge.us ], [ %0, %10 ]
  br label %19

19:                                               ; preds = %.preheader.us, %.thread57.us
  %indvars.iv = phi i64 [ 0, %.preheader.us ], [ %indvars.iv.next, %.thread57.us ]
  %20 = getelementptr inbounds nuw i16, ptr %.04862.us, i64 %indvars.iv
  %21 = load i16, ptr %20, align 2, !tbaa !85
  %22 = zext i16 %21 to i32
  %23 = uitofp i16 %21 to float
  %24 = getelementptr inbounds nuw i16, ptr %.04763.us, i64 %indvars.iv
  %25 = load i16, ptr %24, align 2, !tbaa !85
  %26 = zext i16 %25 to i32
  %27 = icmp ugt i16 %21, %25
  br i1 %27, label %34, label %28

28:                                               ; preds = %19
  %29 = icmp eq i16 %25, 0
  br i1 %29, label %.thread57.us, label %30

30:                                               ; preds = %28
  %31 = sub nsw i32 %26, %22
  %32 = mul nsw i32 %31, 4095
  %33 = sdiv i32 %32, %26
  br label %41

34:                                               ; preds = %19
  %35 = icmp eq i16 %25, 4095
  br i1 %35, label %.thread57.us, label %36

36:                                               ; preds = %34
  %37 = sub nsw i32 %22, %26
  %38 = mul nsw i32 %37, 4095
  %39 = sub nsw i32 4095, %26
  %40 = sdiv i32 %38, %39
  br label %41

41:                                               ; preds = %36, %30
  %42 = phi i32 [ %40, %36 ], [ %33, %30 ]
  %.fr.us = freeze i32 %42
  %43 = tail call i32 @llvm.smax.i32(i32 %.fr.us, i32 0)
  %44 = tail call i32 @llvm.umin.i32(i32 %43, i32 4095)
  br label %.thread57.us

.thread57.us:                                     ; preds = %41, %34, %28
  %45 = phi i32 [ 0, %28 ], [ 0, %34 ], [ %44, %41 ]
  %46 = sub nsw i32 %45, %22
  %47 = sitofp i32 %46 to float
  %48 = tail call nsz float @llvm.fmuladd.f32(float %47, float %13, float %23)
  %49 = fptoui float %48 to i16
  %50 = getelementptr inbounds nuw i16, ptr %.04664.us, i64 %indvars.iv
  store i16 %49, ptr %50, align 2, !tbaa !85
  %indvars.iv.next = add nuw nsw i64 %indvars.iv, 1
  %exitcond.not = icmp eq i64 %indvars.iv.next, %6
  br i1 %exitcond.not, label %._crit_edge.us, label %19, !llvm.loop !394

._crit_edge.us:                                   ; preds = %.thread57.us
  %51 = getelementptr inbounds nuw i16, ptr %.04664.us, i64 %14
  %52 = getelementptr inbounds nuw i16, ptr %.04862.us, i64 %15
  %53 = getelementptr inbounds nuw i16, ptr %.04763.us, i64 %16
  %indvars.iv.next71 = add nuw nsw i64 %indvars.iv70, 1
  %exitcond73.not = icmp eq i64 %indvars.iv.next71, %7
  br i1 %exitcond73.not, label %._crit_edge66, label %.preheader.us, !llvm.loop !395

._crit_edge66:                                    ; preds = %._crit_edge.us, %10
  ret void
}